; ModuleID = '21/40.c'
source_filename = "21/40.c"
target datalayout = "e-m:e-p270:32:32-p271:32:32-p272:64:64-i64:64-f80:128-n8:16:32:64-S128"
target triple = "x86_64-pc-linux-gnu"

@.str = private unnamed_addr constant [3 x i8] c"%d\00", align 1
@.str.1 = private unnamed_addr constant [4 x i8] c"%d\0A\00", align 1
@.str.2 = private unnamed_addr constant [7 x i8] c"%d,%d\0A\00", align 1

; Function Attrs: noinline nounwind uwtable
define dso_local void @main() #0 {
  %1 = alloca [300 x i32], align 16
  %2 = alloca i32, align 4
  %3 = alloca i32, align 4
  %4 = alloca i32, align 4
  %5 = alloca i32, align 4
  %6 = alloca i32, align 4
  %7 = bitcast [300 x i32]* %1 to i8*
  call void @llvm.memset.p0i8.i64(i8* align 16 %7, i8 0, i64 1200, i1 false)
  %8 = call i32 (i8*, ...) @__isoc99_scanf(i8* getelementptr inbounds ([3 x i8], [3 x i8]* @.str, i64 0, i64 0), i32* %3)
  %9 = getelementptr inbounds [300 x i32], [300 x i32]* %1, i64 0, i64 0
  %10 = call i32 (i8*, ...) @__isoc99_scanf(i8* getelementptr inbounds ([3 x i8], [3 x i8]* @.str, i64 0, i64 0), i32* %9)
  %11 = getelementptr inbounds [300 x i32], [300 x i32]* %1, i64 0, i64 0
  %12 = load i32, i32* %11, align 16
  store i32 %12, i32* %4, align 4
  %13 = getelementptr inbounds [300 x i32], [300 x i32]* %1, i64 0, i64 0
  %14 = load i32, i32* %13, align 16
  store i32 %14, i32* %5, align 4
  %15 = getelementptr inbounds [300 x i32], [300 x i32]* %1, i64 0, i64 0
  %16 = load i32, i32* %15, align 16
  store i32 %16, i32* %6, align 4
  %17 = load i32, i32* %3, align 4
  %18 = icmp sgt i32 %17, 1
  br i1 %18, label %19, label %107

19:                                               ; preds = %0
  store i32 1, i32* %2, align 4
  br label %20

20:                                               ; preds = %29, %19
  %21 = load i32, i32* %2, align 4
  %22 = load i32, i32* %3, align 4
  %23 = icmp slt i32 %21, %22
  br i1 %23, label %24, label %32

24:                                               ; preds = %20
  %25 = load i32, i32* %2, align 4
  %26 = sext i32 %25 to i64
  %27 = getelementptr inbounds [300 x i32], [300 x i32]* %1, i64 0, i64 %26
  %28 = call i32 (i8*, ...) @__isoc99_scanf(i8* getelementptr inbounds ([3 x i8], [3 x i8]* @.str, i64 0, i64 0), i32* %27)
  br label %29

29:                                               ; preds = %24
  %30 = load i32, i32* %2, align 4
  %31 = add nsw i32 %30, 1
  store i32 %31, i32* %2, align 4
  br label %20

32:                                               ; preds = %20
  store i32 1, i32* %2, align 4
  br label %33

33:                                               ; preds = %68, %32
  %34 = load i32, i32* %2, align 4
  %35 = load i32, i32* %3, align 4
  %36 = icmp slt i32 %34, %35
  br i1 %36, label %37, label %71

37:                                               ; preds = %33
  %38 = load i32, i32* %6, align 4
  %39 = load i32, i32* %2, align 4
  %40 = sext i32 %39 to i64
  %41 = getelementptr inbounds [300 x i32], [300 x i32]* %1, i64 0, i64 %40
  %42 = load i32, i32* %41, align 4
  %43 = add nsw i32 %38, %42
  store i32 %43, i32* %6, align 4
  %44 = load i32, i32* %4, align 4
  %45 = load i32, i32* %2, align 4
  %46 = sext i32 %45 to i64
  %47 = getelementptr inbounds [300 x i32], [300 x i32]* %1, i64 0, i64 %46
  %48 = load i32, i32* %47, align 4
  %49 = icmp slt i32 %44, %48
  br i1 %49, label %50, label %55

50:                                               ; preds = %37
  %51 = load i32, i32* %2, align 4
  %52 = sext i32 %51 to i64
  %53 = getelementptr inbounds [300 x i32], [300 x i32]* %1, i64 0, i64 %52
  %54 = load i32, i32* %53, align 4
  store i32 %54, i32* %4, align 4
  br label %55

55:                                               ; preds = %50, %37
  %56 = load i32, i32* %5, align 4
  %57 = load i32, i32* %2, align 4
  %58 = sext i32 %57 to i64
  %59 = getelementptr inbounds [300 x i32], [300 x i32]* %1, i64 0, i64 %58
  %60 = load i32, i32* %59, align 4
  %61 = icmp sgt i32 %56, %60
  br i1 %61, label %62, label %67

62:                                               ; preds = %55
  %63 = load i32, i32* %2, align 4
  %64 = sext i32 %63 to i64
  %65 = getelementptr inbounds [300 x i32], [300 x i32]* %1, i64 0, i64 %64
  %66 = load i32, i32* %65, align 4
  store i32 %66, i32* %5, align 4
  br label %67

67:                                               ; preds = %62, %55
  br label %68

68:                                               ; preds = %67
  %69 = load i32, i32* %2, align 4
  %70 = add nsw i32 %69, 1
  store i32 %70, i32* %2, align 4
  br label %33

71:                                               ; preds = %33
  %72 = load i32, i32* %4, align 4
  %73 = load i32, i32* %3, align 4
  %74 = mul nsw i32 %72, %73
  %75 = load i32, i32* %6, align 4
  %76 = sub nsw i32 %74, %75
  %77 = load i32, i32* %6, align 4
  %78 = load i32, i32* %5, align 4
  %79 = load i32, i32* %3, align 4
  %80 = mul nsw i32 %78, %79
  %81 = sub nsw i32 %77, %80
  %82 = icmp sgt i32 %76, %81
  br i1 %82, label %83, label %86

83:                                               ; preds = %71
  %84 = load i32, i32* %4, align 4
  %85 = call i32 (i8*, ...) @printf(i8* getelementptr inbounds ([4 x i8], [4 x i8]* @.str.1, i64 0, i64 0), i32 %84)
  br label %106

86:                                               ; preds = %71
  %87 = load i32, i32* %4, align 4
  %88 = load i32, i32* %3, align 4
  %89 = mul nsw i32 %87, %88
  %90 = load i32, i32* %6, align 4
  %91 = sub nsw i32 %89, %90
  %92 = load i32, i32* %6, align 4
  %93 = load i32, i32* %5, align 4
  %94 = load i32, i32* %3, align 4
  %95 = mul nsw i32 %93, %94
  %96 = sub nsw i32 %92, %95
  %97 = icmp slt i32 %91, %96
  br i1 %97, label %98, label %101

98:                                               ; preds = %86
  %99 = load i32, i32* %5, align 4
  %100 = call i32 (i8*, ...) @printf(i8* getelementptr inbounds ([4 x i8], [4 x i8]* @.str.1, i64 0, i64 0), i32 %99)
  br label %105

101:                                              ; preds = %86
  %102 = load i32, i32* %5, align 4
  %103 = load i32, i32* %4, align 4
  %104 = call i32 (i8*, ...) @printf(i8* getelementptr inbounds ([7 x i8], [7 x i8]* @.str.2, i64 0, i64 0), i32 %102, i32 %103)
  br label %105

105:                                              ; preds = %101, %98
  br label %106

106:                                              ; preds = %105, %83
  br label %108

107:                                              ; preds = %0
  br label %108

108:                                              ; preds = %107, %106
  ret void
}

; Function Attrs: argmemonly nounwind willreturn
declare void @llvm.memset.p0i8.i64(i8* nocapture writeonly, i8, i64, i1 immarg) #1

declare dso_local i32 @__isoc99_scanf(i8*, ...) #2

declare dso_local i32 @printf(i8*, ...) #2


!llvm.module.flags = !{!0}
!llvm.ident = !{!1}

!0 = !{i32 1, !"wchar_size", i32 4}
!1 = !{!"clang version 10.0.0-4ubuntu1 "}
